; Function Attrs: nounwind uwtable
define ptr @l_Lean_Elab_Deriving_ToExpr_mkAuxFunction___lambda__1___boxed(ptr noundef %0, ptr noundef %1, ptr noundef %2, ptr noundef %3, ptr noundef %4, ptr noundef %5, ptr noundef %6, ptr noundef %7, ptr noundef %8, ptr noundef %9, ptr noundef %10, ptr noundef %11, ptr noundef %12, ptr noundef %13, ptr noundef %14) local_unnamed_addr #0 {
  %16 = getelementptr i8, ptr %2, i64 8
  %.val = load i64, ptr %16, align 8, !tbaa !12
  %17 = ptrtoint ptr %2 to i64
  %18 = and i64 %17, 1
  %.not = icmp eq i64 %18, 0
  br i1 %.not, label %19, label %lean_dec.exit30

19:                                               ; preds = %15
  %20 = load i32, ptr %2, align 4, !tbaa !8
  %21 = icmp sgt i32 %20, 1
  br i1 %21, label %22, label %24, !prof !11

22:                                               ; preds = %19
  %23 = add nsw i32 %20, -1
  store i32 %23, ptr %2, align 4, !tbaa !8
  br label %lean_dec.exit30

24:                                               ; preds = %19
  %.not.i = icmp eq i32 %20, 0
  br i1 %.not.i, label %lean_dec.exit30, label %25

25:                                               ; preds = %24
  tail call void @lean_dec_ref_cold(ptr noundef nonnull %2) #5
  br label %lean_dec.exit30

lean_dec.exit30:                                  ; preds = %25, %24, %22, %15
  %26 = tail call ptr @l_Lean_Elab_Deriving_ToExpr_mkAuxFunction___lambda__1(ptr noundef %0, ptr noundef %1, i64 noundef %.val, ptr noundef %3, ptr noundef %4, ptr noundef %5, ptr noundef %6, ptr poison, ptr noundef %8, ptr noundef %9, ptr noundef %10, ptr noundef %11, ptr noundef %12, ptr noundef %13, ptr noundef %14)
  %27 = ptrtoint ptr %13 to i64
  %28 = and i64 %27, 1
  %.not45 = icmp eq i64 %28, 0
  br i1 %.not45, label %29, label %lean_dec.exit29

29:                                               ; preds = %lean_dec.exit30
  %30 = load i32, ptr %13, align 4, !tbaa !8
  %31 = icmp sgt i32 %30, 1
  br i1 %31, label %32, label %34, !prof !11

32:                                               ; preds = %29
  %33 = add nsw i32 %30, -1
  store i32 %33, ptr %13, align 4, !tbaa !8
  br label %lean_dec.exit29

34:                                               ; preds = %29
  %.not.i31 = icmp eq i32 %30, 0
  br i1 %.not.i31, label %lean_dec.exit29, label %35

35:                                               ; preds = %34
  tail call void @lean_dec_ref_cold(ptr noundef nonnull %13) #5
  br label %lean_dec.exit29

lean_dec.exit29:                                  ; preds = %35, %34, %32, %lean_dec.exit30
  %36 = ptrtoint ptr %11 to i64
  %37 = and i64 %36, 1
  %.not46 = icmp eq i64 %37, 0
  br i1 %.not46, label %38, label %lean_dec.exit28

38:                                               ; preds = %lean_dec.exit29
  %39 = load i32, ptr %11, align 4, !tbaa !8
  %40 = icmp sgt i32 %39, 1
  br i1 %40, label %41, label %43, !prof !11

41:                                               ; preds = %38
  %42 = add nsw i32 %39, -1
  store i32 %42, ptr %11, align 4, !tbaa !8
  br label %lean_dec.exit28

43:                                               ; preds = %38
  %.not.i33 = icmp eq i32 %39, 0
  br i1 %.not.i33, label %lean_dec.exit28, label %44

44:                                               ; preds = %43
  tail call void @lean_dec_ref_cold(ptr noundef nonnull %11) #5
  br label %lean_dec.exit28

lean_dec.exit28:                                  ; preds = %44, %43, %41, %lean_dec.exit29
  %45 = ptrtoint ptr %10 to i64
  %46 = and i64 %45, 1
  %.not47 = icmp eq i64 %46, 0
  br i1 %.not47, label %47, label %lean_dec.exit27

47:                                               ; preds = %lean_dec.exit28
  %48 = load i32, ptr %10, align 4, !tbaa !8
  %49 = icmp sgt i32 %48, 1
  br i1 %49, label %50, label %52, !prof !11

50:                                               ; preds = %47
  %51 = add nsw i32 %48, -1
  store i32 %51, ptr %10, align 4, !tbaa !8
  br label %lean_dec.exit27

52:                                               ; preds = %47
  %.not.i35 = icmp eq i32 %48, 0
  br i1 %.not.i35, label %lean_dec.exit27, label %53

53:                                               ; preds = %52
  tail call void @lean_dec_ref_cold(ptr noundef nonnull %10) #5
  br label %lean_dec.exit27

lean_dec.exit27:                                  ; preds = %53, %52, %50, %lean_dec.exit28
  %54 = ptrtoint ptr %9 to i64
  %55 = and i64 %54, 1
  %.not48 = icmp eq i64 %55, 0
  br i1 %.not48, label %56, label %lean_dec.exit26

56:                                               ; preds = %lean_dec.exit27
  %57 = load i32, ptr %9, align 4, !tbaa !8
  %58 = icmp sgt i32 %57, 1
  br i1 %58, label %59, label %61, !prof !11

59:                                               ; preds = %56
  %60 = add nsw i32 %57, -1
  store i32 %60, ptr %9, align 4, !tbaa !8
  br label %lean_dec.exit26

61:                                               ; preds = %56
  %.not.i37 = icmp eq i32 %57, 0
  br i1 %.not.i37, label %lean_dec.exit26, label %62

62:                                               ; preds = %61
  tail call void @lean_dec_ref_cold(ptr noundef nonnull %9) #5
  br label %lean_dec.exit26

lean_dec.exit26:                                  ; preds = %62, %61, %59, %lean_dec.exit27
  %63 = ptrtoint ptr %7 to i64
  %64 = and i64 %63, 1
  %.not49 = icmp eq i64 %64, 0
  br i1 %.not49, label %65, label %lean_dec.exit25

65:                                               ; preds = %lean_dec.exit26
  %66 = load i32, ptr %7, align 4, !tbaa !8
  %67 = icmp sgt i32 %66, 1
  br i1 %67, label %68, label %70, !prof !11

68:                                               ; preds = %65
  %69 = add nsw i32 %66, -1
  store i32 %69, ptr %7, align 4, !tbaa !8
  br label %lean_dec.exit25

70:                                               ; preds = %65
  %.not.i39 = icmp eq i32 %66, 0
  br i1 %.not.i39, label %lean_dec.exit25, label %71

71:                                               ; preds = %70
  tail call void @lean_dec_ref_cold(ptr noundef nonnull %7) #5
  br label %lean_dec.exit25

lean_dec.exit25:                                  ; preds = %71, %70, %68, %lean_dec.exit26
  %72 = ptrtoint ptr %3 to i64
  %73 = and i64 %72, 1
  %.not50 = icmp eq i64 %73, 0
  br i1 %.not50, label %74, label %lean_dec.exit24

74:                                               ; preds = %lean_dec.exit25
  %75 = load i32, ptr %3, align 4, !tbaa !8
  %76 = icmp sgt i32 %75, 1
  br i1 %76, label %77, label %79, !prof !11

77:                                               ; preds = %74
  %78 = add nsw i32 %75, -1
  store i32 %78, ptr %3, align 4, !tbaa !8
  br label %lean_dec.exit24

79:                                               ; preds = %74
  %.not.i41 = icmp eq i32 %75, 0
  br i1 %.not.i41, label %lean_dec.exit24, label %80

80:                                               ; preds = %79
  tail call void @lean_dec_ref_cold(ptr noundef nonnull %3) #5
  br label %lean_dec.exit24

lean_dec.exit24:                                  ; preds = %80, %79, %77, %lean_dec.exit25
  %81 = ptrtoint ptr %1 to i64
  %82 = and i64 %81, 1
  %.not51 = icmp eq i64 %82, 0
  br i1 %.not51, label %83, label %lean_dec.exit

83:                                               ; preds = %lean_dec.exit24
  %84 = load i32, ptr %1, align 4, !tbaa !8
  %85 = icmp sgt i32 %84, 1
  br i1 %85, label %86, label %88, !prof !11

86:                                               ; preds = %83
  %87 = add nsw i32 %84, -1
  store i32 %87, ptr %1, align 4, !tbaa !8
  br label %lean_dec.exit

88:                                               ; preds = %83
  %.not.i43 = icmp eq i32 %84, 0
  br i1 %.not.i43, label %lean_dec.exit, label %89

89:                                               ; preds = %88
  tail call void @lean_dec_ref_cold(ptr noundef nonnull %1) #5
  br label %lean_dec.exit

lean_dec.exit:                                    ; preds = %89, %88, %86, %lean_dec.exit24
  ret ptr %26
}